target datalayout = "e-m:e-p270:32:32-p271:32:32-p272:64:64-i64:64-i128:128-f80:128-n8:16:32:64-S128"
target triple = "x86_64-pc-linux-gnu"

@.str.1 = private unnamed_addr constant [11 x i8] c"execMain.c\00", align 1
@.str.39 = private unnamed_addr constant [36 x i8] c"whole-row update is not implemented\00", align 1
@__func__.ExecCheckPermissionsModified = private unnamed_addr constant [29 x i8] c"ExecCheckPermissionsModified\00", align 1

; Function Attrs: nounwind uwtable
define internal zeroext i1 @ExecCheckPermissionsModified(i32 noundef %0, i32 noundef %1, ptr noundef %2, i64 noundef %3) #0 {
  %5 = alloca i1, align 1
  %6 = alloca i32, align 4
  %7 = alloca i32, align 4
  %8 = alloca ptr, align 8
  %9 = alloca i64, align 8
  %10 = alloca i32, align 4
  %11 = alloca i32, align 4
  %12 = alloca i16, align 2
  store i32 %0, ptr %6, align 4
  store i32 %1, ptr %7, align 4
  store ptr %2, ptr %8, align 8
  store i64 %3, ptr %9, align 8
  call void @llvm.lifetime.start.p0(i64 4, ptr %10) #9
  store i32 -1, ptr %10, align 4
  %13 = load ptr, ptr %8, align 8
  %14 = icmp eq ptr %13, null
  br i1 %14, label %15, label %23

15:                                               ; preds = %4
  %16 = load i32, ptr %6, align 4
  %17 = load i32, ptr %7, align 4
  %18 = load i64, ptr %9, align 8
  %19 = call i32 @pg_attribute_aclcheck_all(i32 noundef %16, i32 noundef %17, i64 noundef %18, i32 noundef 1)
  %20 = icmp ne i32 %19, 0
  br i1 %20, label %21, label %22

21:                                               ; preds = %15
  store i1 false, ptr %5, align 1
  store i32 1, ptr %11, align 4
  br label %61

22:                                               ; preds = %15
  br label %23

23:                                               ; preds = %22, %4
  br label %24

24:                                               ; preds = %59, %23
  %25 = load ptr, ptr %8, align 8
  %26 = load i32, ptr %10, align 4
  %27 = call i32 @bms_next_member(ptr noundef %25, i32 noundef %26)
  store i32 %27, ptr %10, align 4
  %28 = icmp sge i32 %27, 0
  br i1 %28, label %29, label %60

29:                                               ; preds = %24
  call void @llvm.lifetime.start.p0(i64 2, ptr %12) #9
  %30 = load i32, ptr %10, align 4
  %31 = add i32 %30, -7
  %32 = trunc i32 %31 to i16
  store i16 %32, ptr %12, align 2
  %33 = load i16, ptr %12, align 2
  %34 = sext i16 %33 to i32
  %35 = icmp eq i32 %34, 0
  br i1 %35, label %36, label %47

36:                                               ; preds = %29
  br label %37

37:                                               ; preds = %36
  br i1 true, label %38, label %40

38:                                               ; preds = %37
  %39 = call zeroext i1 @errstart_cold(i32 noundef 21, ptr noundef null) #10
  br i1 %39, label %42, label %44

40:                                               ; preds = %37
  %41 = call zeroext i1 @errstart(i32 noundef 21, ptr noundef null)
  br i1 %41, label %42, label %44

42:                                               ; preds = %40, %38
  %43 = call i32 (ptr, ...) @errmsg_internal(ptr noundef @.str.39)
  call void @errfinish(ptr noundef @.str.1, i32 noundef 778, ptr noundef @__func__.ExecCheckPermissionsModified)
  br label %44

44:                                               ; preds = %42, %40, %38
  unreachable

45:                                               ; No predecessors!
  br label %46

46:                                               ; preds = %45
  br label %56

47:                                               ; preds = %29
  %48 = load i32, ptr %6, align 4
  %49 = load i16, ptr %12, align 2
  %50 = load i32, ptr %7, align 4
  %51 = load i64, ptr %9, align 8
  %52 = call i32 @pg_attribute_aclcheck(i32 noundef %48, i16 noundef signext %49, i32 noundef %50, i64 noundef %51)
  %53 = icmp ne i32 %52, 0
  br i1 %53, label %54, label %55

54:                                               ; preds = %47
  store i1 false, ptr %5, align 1
  store i32 1, ptr %11, align 4
  br label %57

55:                                               ; preds = %47
  br label %56

56:                                               ; preds = %55, %46
  store i32 0, ptr %11, align 4
  br label %57

57:                                               ; preds = %56, %54
  call void @llvm.lifetime.end.p0(i64 2, ptr %12) #9
  %58 = load i32, ptr %11, align 4
  switch i32 %58, label %61 [
    i32 0, label %59
  ]

59:                                               ; preds = %57
  br label %24, !llvm.loop !35

60:                                               ; preds = %24
  store i1 true, ptr %5, align 1
  store i32 1, ptr %11, align 4
  br label %61

61:                                               ; preds = %60, %57, %21
  call void @llvm.lifetime.end.p0(i64 4, ptr %10) #9
  %62 = load i1, ptr %5, align 1
  ret i1 %62
}