; Function Attrs: nounwind uwtable
define internal fastcc noundef zeroext i1 @ExecCheckPermissionsModified(i32 noundef %0, i32 noundef %1, ptr noundef %2, i64 noundef range(i64 1, 5) %3) unnamed_addr #0 {
  %5 = icmp eq ptr %2, null
  br i1 %5, label %6, label %.preheader

6:                                                ; preds = %4
  %7 = tail call i32 @pg_attribute_aclcheck_all(i32 noundef %0, i32 noundef %1, i64 noundef %3, i32 noundef 1) #9
  %.not = icmp eq i32 %7, 0
  br i1 %.not, label %.preheader, label %.loopexit

.preheader:                                       ; preds = %6, %4
  br label %8

8:                                                ; preds = %.preheader, %18
  %.014 = phi i32 [ %9, %18 ], [ -1, %.preheader ]
  %9 = tail call i32 @bms_next_member(ptr noundef %2, i32 noundef %.014) #9
  %10 = icmp slt i32 %9, 0
  br i1 %10, label %.loopexit, label %11

11:                                               ; preds = %8
  %12 = trunc i32 %9 to i16
  %13 = add i16 %12, -7
  %14 = icmp eq i16 %13, 0
  br i1 %14, label %15, label %18

15:                                               ; preds = %11
  %16 = tail call zeroext i1 @errstart_cold(i32 noundef 21, ptr noundef null) #10
  tail call void @llvm.assume(i1 %16)
  %17 = tail call i32 (ptr, ...) @errmsg_internal(ptr noundef nonnull @.str.39) #9
  tail call void @errfinish(ptr noundef nonnull @.str.1, i32 noundef 778, ptr noundef nonnull @__func__.ExecCheckPermissionsModified) #9
  unreachable

18:                                               ; preds = %11
  %19 = tail call i32 @pg_attribute_aclcheck(i32 noundef %0, i16 noundef signext %13, i32 noundef %1, i64 noundef %3) #9
  %.not16 = icmp eq i32 %19, 0
  br i1 %.not16, label %8, label %.loopexit, !llvm.loop !17

.loopexit:                                        ; preds = %8, %18, %6
  %.0 = phi i1 [ false, %6 ], [ %10, %18 ], [ %10, %8 ]
  ret i1 %.0
}